target datalayout = "e-m:e-p270:32:32-p271:32:32-p272:64:64-i64:64-i128:128-f80:128-n8:16:32:64-S128"
target triple = "x86_64-pc-linux-gnu"

%struct.ewah_bitmap = type { ptr, i64, i64, i64, ptr }

@.str = private unnamed_addr constant [27 x i8] c"size_t overflow: %lu * %lu\00", align 1

; Function Attrs: inlinehint nounwind uwtable
define internal void @buffer_push(ptr noundef %0, i64 noundef %1) #2 {
  %3 = alloca ptr, align 8
  %4 = alloca i64, align 8
  store ptr %0, ptr %3, align 8, !tbaa !4
  store i64 %1, ptr %4, align 8, !tbaa !11
  %5 = load ptr, ptr %3, align 8, !tbaa !4
  %6 = load ptr, ptr %3, align 8, !tbaa !4
  %7 = getelementptr inbounds nuw %struct.ewah_bitmap, ptr %6, i32 0, i32 1
  %8 = load i64, ptr %7, align 8, !tbaa !20
  %9 = add i64 %8, 1
  call void @buffer_grow(ptr noundef %5, i64 noundef %9)
  %10 = load i64, ptr %4, align 8, !tbaa !11
  %11 = load ptr, ptr %3, align 8, !tbaa !4
  %12 = getelementptr inbounds nuw %struct.ewah_bitmap, ptr %11, i32 0, i32 0
  %13 = load ptr, ptr %12, align 8, !tbaa !21
  %14 = load ptr, ptr %3, align 8, !tbaa !4
  %15 = getelementptr inbounds nuw %struct.ewah_bitmap, ptr %14, i32 0, i32 1
  %16 = load i64, ptr %15, align 8, !tbaa !20
  %17 = add i64 %16, 1
  store i64 %17, ptr %15, align 8, !tbaa !20
  %18 = getelementptr inbounds nuw i64, ptr %13, i64 %16
  store i64 %10, ptr %18, align 8, !tbaa !11
  ret void
}

; Function Attrs: inlinehint nounwind uwtable
define internal i64 @st_mult(i64 noundef %0, i64 noundef %1) #2 {
  %3 = alloca i64, align 8
  %4 = alloca i64, align 8
  store i64 %0, ptr %3, align 8, !tbaa !11
  store i64 %1, ptr %4, align 8, !tbaa !11
  %5 = load i64, ptr %3, align 8, !tbaa !11
  %6 = icmp ne i64 %5, 0
  br i1 %6, label %7, label %15

7:                                                ; preds = %2
  %8 = load i64, ptr %4, align 8, !tbaa !11
  %9 = load i64, ptr %3, align 8, !tbaa !11
  %10 = udiv i64 -1, %9
  %11 = icmp ugt i64 %8, %10
  br i1 %11, label %12, label %15

12:                                               ; preds = %7
  %13 = load i64, ptr %3, align 8, !tbaa !11
  %14 = load i64, ptr %4, align 8, !tbaa !11
  call void (ptr, ...) @die(ptr noundef @.str, i64 noundef %13, i64 noundef %14) #8
  unreachable

15:                                               ; preds = %7, %2
  %16 = load i64, ptr %3, align 8, !tbaa !11
  %17 = load i64, ptr %4, align 8, !tbaa !11
  %18 = mul i64 %16, %17
  ret i64 %18
}

; Function Attrs: nounwind uwtable
define internal void @buffer_push_rlw(ptr noundef %0, i64 noundef %1) #0 {
  %3 = alloca ptr, align 8
  %4 = alloca i64, align 8
  store ptr %0, ptr %3, align 8, !tbaa !4
  store i64 %1, ptr %4, align 8, !tbaa !11
  %5 = load ptr, ptr %3, align 8, !tbaa !4
  %6 = load i64, ptr %4, align 8, !tbaa !11
  call void @buffer_push(ptr noundef %5, i64 noundef %6)
  %7 = load ptr, ptr %3, align 8, !tbaa !4
  %8 = getelementptr inbounds nuw %struct.ewah_bitmap, ptr %7, i32 0, i32 0
  %9 = load ptr, ptr %8, align 8, !tbaa !21
  %10 = load ptr, ptr %3, align 8, !tbaa !4
  %11 = getelementptr inbounds nuw %struct.ewah_bitmap, ptr %10, i32 0, i32 1
  %12 = load i64, ptr %11, align 8, !tbaa !20
  %13 = getelementptr inbounds nuw i64, ptr %9, i64 %12
  %14 = getelementptr inbounds i64, ptr %13, i64 -1
  %15 = load ptr, ptr %3, align 8, !tbaa !4
  %16 = getelementptr inbounds nuw %struct.ewah_bitmap, ptr %15, i32 0, i32 4
  store ptr %14, ptr %16, align 8, !tbaa !16
  ret void
}

; Function Attrs: inlinehint nounwind uwtable
define internal void @buffer_grow(ptr noundef %0, i64 noundef %1) #2 {
  %3 = alloca ptr, align 8
  %4 = alloca i64, align 8
  %5 = alloca i64, align 8
  store ptr %0, ptr %3, align 8, !tbaa !4
  store i64 %1, ptr %4, align 8, !tbaa !11
  call void @llvm.lifetime.start.p0(i64 8, ptr %5) #7
  %6 = load ptr, ptr %3, align 8, !tbaa !4
  %7 = getelementptr inbounds nuw %struct.ewah_bitmap, ptr %6, i32 0, i32 4
  %8 = load ptr, ptr %7, align 8, !tbaa !16
  %9 = load ptr, ptr %3, align 8, !tbaa !4
  %10 = getelementptr inbounds nuw %struct.ewah_bitmap, ptr %9, i32 0, i32 0
  %11 = load ptr, ptr %10, align 8, !tbaa !21
  %12 = ptrtoint ptr %8 to i64
  %13 = ptrtoint ptr %11 to i64
  %14 = sub i64 %12, %13
  store i64 %14, ptr %5, align 8, !tbaa !11
  br label %15

15:                                               ; preds = %2
  %16 = load i64, ptr %4, align 8, !tbaa !11
  %17 = load ptr, ptr %3, align 8, !tbaa !4
  %18 = getelementptr inbounds nuw %struct.ewah_bitmap, ptr %17, i32 0, i32 2
  %19 = load i64, ptr %18, align 8, !tbaa !23
  %20 = icmp ugt i64 %16, %19
  br i1 %20, label %21, label %54

21:                                               ; preds = %15
  %22 = load ptr, ptr %3, align 8, !tbaa !4
  %23 = getelementptr inbounds nuw %struct.ewah_bitmap, ptr %22, i32 0, i32 2
  %24 = load i64, ptr %23, align 8, !tbaa !23
  %25 = add i64 %24, 16
  %26 = mul i64 %25, 3
  %27 = udiv i64 %26, 2
  %28 = load i64, ptr %4, align 8, !tbaa !11
  %29 = icmp ult i64 %27, %28
  br i1 %29, label %30, label %34

30:                                               ; preds = %21
  %31 = load i64, ptr %4, align 8, !tbaa !11
  %32 = load ptr, ptr %3, align 8, !tbaa !4
  %33 = getelementptr inbounds nuw %struct.ewah_bitmap, ptr %32, i32 0, i32 2
  store i64 %31, ptr %33, align 8, !tbaa !23
  br label %43

34:                                               ; preds = %21
  %35 = load ptr, ptr %3, align 8, !tbaa !4
  %36 = getelementptr inbounds nuw %struct.ewah_bitmap, ptr %35, i32 0, i32 2
  %37 = load i64, ptr %36, align 8, !tbaa !23
  %38 = add i64 %37, 16
  %39 = mul i64 %38, 3
  %40 = udiv i64 %39, 2
  %41 = load ptr, ptr %3, align 8, !tbaa !4
  %42 = getelementptr inbounds nuw %struct.ewah_bitmap, ptr %41, i32 0, i32 2
  store i64 %40, ptr %42, align 8, !tbaa !23
  br label %43

43:                                               ; preds = %34, %30
  %44 = load ptr, ptr %3, align 8, !tbaa !4
  %45 = getelementptr inbounds nuw %struct.ewah_bitmap, ptr %44, i32 0, i32 0
  %46 = load ptr, ptr %45, align 8, !tbaa !21
  %47 = load ptr, ptr %3, align 8, !tbaa !4
  %48 = getelementptr inbounds nuw %struct.ewah_bitmap, ptr %47, i32 0, i32 2
  %49 = load i64, ptr %48, align 8, !tbaa !23
  %50 = call i64 @st_mult(i64 noundef 8, i64 noundef %49)
  %51 = call ptr @xrealloc(ptr noundef %46, i64 noundef %50)
  %52 = load ptr, ptr %3, align 8, !tbaa !4
  %53 = getelementptr inbounds nuw %struct.ewah_bitmap, ptr %52, i32 0, i32 0
  store ptr %51, ptr %53, align 8, !tbaa !21
  br label %54

54:                                               ; preds = %43, %15
  br label %55

55:                                               ; preds = %54
  br label %56

56:                                               ; preds = %55
  %57 = load ptr, ptr %3, align 8, !tbaa !4
  %58 = getelementptr inbounds nuw %struct.ewah_bitmap, ptr %57, i32 0, i32 0
  %59 = load ptr, ptr %58, align 8, !tbaa !21
  %60 = load i64, ptr %5, align 8, !tbaa !11
  %61 = udiv i64 %60, 8
  %62 = getelementptr inbounds nuw i64, ptr %59, i64 %61
  %63 = load ptr, ptr %3, align 8, !tbaa !4
  %64 = getelementptr inbounds nuw %struct.ewah_bitmap, ptr %63, i32 0, i32 4
  store ptr %62, ptr %64, align 8, !tbaa !16
  call void @llvm.lifetime.end.p0(i64 8, ptr %5) #7
  ret void
}

; Function Attrs: inlinehint nounwind uwtable
define internal void @rlw_set_literal_words(ptr noundef %0, i64 noundef %1) #2 {
  %3 = alloca ptr, align 8
  %4 = alloca i64, align 8
  store ptr %0, ptr %3, align 8, !tbaa !19
  store i64 %1, ptr %4, align 8, !tbaa !11
  %5 = load ptr, ptr %3, align 8, !tbaa !19
  %6 = load i64, ptr %5, align 8, !tbaa !11
  %7 = or i64 %6, -8589934592
  store i64 %7, ptr %5, align 8, !tbaa !11
  %8 = load i64, ptr %4, align 8, !tbaa !11
  %9 = shl i64 %8, 33
  %10 = or i64 %9, 8589934591
  %11 = load ptr, ptr %3, align 8, !tbaa !19
  %12 = load i64, ptr %11, align 8, !tbaa !11
  %13 = and i64 %12, %10
  store i64 %13, ptr %11, align 8, !tbaa !11
  ret void
}

; Function Attrs: inlinehint nounwind uwtable
define internal i64 @min_size(i64 noundef %0, i64 noundef %1) #2 {
  %3 = alloca i64, align 8
  %4 = alloca i64, align 8
  store i64 %0, ptr %3, align 8, !tbaa !11
  store i64 %1, ptr %4, align 8, !tbaa !11
  %5 = load i64, ptr %3, align 8, !tbaa !11
  %6 = load i64, ptr %4, align 8, !tbaa !11
  %7 = icmp ult i64 %5, %6
  br i1 %7, label %8, label %10

8:                                                ; preds = %2
  %9 = load i64, ptr %3, align 8, !tbaa !11
  br label %12

10:                                               ; preds = %2
  %11 = load i64, ptr %4, align 8, !tbaa !11
  br label %12

12:                                               ; preds = %10, %8
  %13 = phi i64 [ %9, %8 ], [ %11, %10 ]
  ret i64 %13
}

; Function Attrs: inlinehint nounwind uwtable
define internal i64 @rlw_get_literal_words(ptr noundef %0) #2 {
  %2 = alloca ptr, align 8
  store ptr %0, ptr %2, align 8, !tbaa !19
  %3 = load ptr, ptr %2, align 8, !tbaa !19
  %4 = load i64, ptr %3, align 8, !tbaa !11
  %5 = lshr i64 %4, 33
  ret i64 %5
}

; Function Attrs: nounwind uwtable
define dso_local void @ewah_add_dirty_words(ptr noundef %0, ptr noundef %1, i64 noundef %2, i32 noundef %3) #0 {
  %5 = alloca ptr, align 8
  %6 = alloca ptr, align 8
  %7 = alloca i64, align 8
  %8 = alloca i32, align 4
  %9 = alloca i64, align 8
  %10 = alloca i64, align 8
  %11 = alloca i64, align 8
  store ptr %0, ptr %5, align 8, !tbaa !4
  store ptr %1, ptr %6, align 8, !tbaa !19
  store i64 %2, ptr %7, align 8, !tbaa !11
  store i32 %3, ptr %8, align 4, !tbaa !9
  call void @llvm.lifetime.start.p0(i64 8, ptr %9) #7
  call void @llvm.lifetime.start.p0(i64 8, ptr %10) #7
  br label %12

12:                                               ; preds = %87, %4
  br label %13

13:                                               ; preds = %12
  %14 = load ptr, ptr %5, align 8, !tbaa !4
  %15 = getelementptr inbounds nuw %struct.ewah_bitmap, ptr %14, i32 0, i32 4
  %16 = load ptr, ptr %15, align 8, !tbaa !16
  %17 = call i64 @rlw_get_literal_words(ptr noundef %16)
  store i64 %17, ptr %9, align 8, !tbaa !11
  %18 = load i64, ptr %7, align 8, !tbaa !11
  %19 = load i64, ptr %9, align 8, !tbaa !11
  %20 = sub i64 2147483647, %19
  %21 = call i64 @min_size(i64 noundef %18, i64 noundef %20)
  store i64 %21, ptr %10, align 8, !tbaa !11
  %22 = load ptr, ptr %5, align 8, !tbaa !4
  %23 = getelementptr inbounds nuw %struct.ewah_bitmap, ptr %22, i32 0, i32 4
  %24 = load ptr, ptr %23, align 8, !tbaa !16
  %25 = load i64, ptr %9, align 8, !tbaa !11
  %26 = load i64, ptr %10, align 8, !tbaa !11
  %27 = add i64 %25, %26
  call void @rlw_set_literal_words(ptr noundef %24, i64 noundef %27)
  %28 = load ptr, ptr %5, align 8, !tbaa !4
  %29 = load ptr, ptr %5, align 8, !tbaa !4
  %30 = getelementptr inbounds nuw %struct.ewah_bitmap, ptr %29, i32 0, i32 1
  %31 = load i64, ptr %30, align 8, !tbaa !20
  %32 = load i64, ptr %10, align 8, !tbaa !11
  %33 = add i64 %31, %32
  call void @buffer_grow(ptr noundef %28, i64 noundef %33)
  %34 = load i32, ptr %8, align 4, !tbaa !9
  %35 = icmp ne i32 %34, 0
  br i1 %35, label %36, label %59

36:                                               ; preds = %13
  call void @llvm.lifetime.start.p0(i64 8, ptr %11) #7
  store i64 0, ptr %11, align 8, !tbaa !11
  br label %37

37:                                               ; preds = %55, %36
  %38 = load i64, ptr %11, align 8, !tbaa !11
  %39 = load i64, ptr %10, align 8, !tbaa !11
  %40 = icmp ult i64 %38, %39
  br i1 %40, label %41, label %58

41:                                               ; preds = %37
  %42 = load ptr, ptr %6, align 8, !tbaa !19
  %43 = load i64, ptr %11, align 8, !tbaa !11
  %44 = getelementptr inbounds nuw i64, ptr %42, i64 %43
  %45 = load i64, ptr %44, align 8, !tbaa !11
  %46 = xor i64 %45, -1
  %47 = load ptr, ptr %5, align 8, !tbaa !4
  %48 = getelementptr inbounds nuw %struct.ewah_bitmap, ptr %47, i32 0, i32 0
  %49 = load ptr, ptr %48, align 8, !tbaa !21
  %50 = load ptr, ptr %5, align 8, !tbaa !4
  %51 = getelementptr inbounds nuw %struct.ewah_bitmap, ptr %50, i32 0, i32 1
  %52 = load i64, ptr %51, align 8, !tbaa !20
  %53 = add i64 %52, 1
  store i64 %53, ptr %51, align 8, !tbaa !20
  %54 = getelementptr inbounds nuw i64, ptr %49, i64 %52
  store i64 %46, ptr %54, align 8, !tbaa !11
  br label %55

55:                                               ; preds = %41
  %56 = load i64, ptr %11, align 8, !tbaa !11
  %57 = add i64 %56, 1
  store i64 %57, ptr %11, align 8, !tbaa !11
  br label %37, !llvm.loop !22

58:                                               ; preds = %37
  call void @llvm.lifetime.end.p0(i64 8, ptr %11) #7
  br label %75

59:                                               ; preds = %13
  %60 = load ptr, ptr %5, align 8, !tbaa !4
  %61 = getelementptr inbounds nuw %struct.ewah_bitmap, ptr %60, i32 0, i32 0
  %62 = load ptr, ptr %61, align 8, !tbaa !21
  %63 = load ptr, ptr %5, align 8, !tbaa !4
  %64 = getelementptr inbounds nuw %struct.ewah_bitmap, ptr %63, i32 0, i32 1
  %65 = load i64, ptr %64, align 8, !tbaa !20
  %66 = getelementptr inbounds nuw i64, ptr %62, i64 %65
  %67 = load ptr, ptr %6, align 8, !tbaa !19
  %68 = load i64, ptr %10, align 8, !tbaa !11
  %69 = mul i64 %68, 8
  call void @llvm.memcpy.p0.p0.i64(ptr align 8 %66, ptr align 8 %67, i64 %69, i1 false)
  %70 = load i64, ptr %10, align 8, !tbaa !11
  %71 = load ptr, ptr %5, align 8, !tbaa !4
  %72 = getelementptr inbounds nuw %struct.ewah_bitmap, ptr %71, i32 0, i32 1
  %73 = load i64, ptr %72, align 8, !tbaa !20
  %74 = add i64 %73, %70
  store i64 %74, ptr %72, align 8, !tbaa !20
  br label %75

75:                                               ; preds = %59, %58
  %76 = load i64, ptr %10, align 8, !tbaa !11
  %77 = mul i64 %76, 64
  %78 = load ptr, ptr %5, align 8, !tbaa !4
  %79 = getelementptr inbounds nuw %struct.ewah_bitmap, ptr %78, i32 0, i32 3
  %80 = load i64, ptr %79, align 8, !tbaa !13
  %81 = add i64 %80, %77
  store i64 %81, ptr %79, align 8, !tbaa !13
  %82 = load i64, ptr %7, align 8, !tbaa !11
  %83 = load i64, ptr %10, align 8, !tbaa !11
  %84 = sub i64 %82, %83
  %85 = icmp eq i64 %84, 0
  br i1 %85, label %86, label %87

86:                                               ; preds = %75
  br label %95

87:                                               ; preds = %75
  %88 = load ptr, ptr %5, align 8, !tbaa !4
  call void @buffer_push_rlw(ptr noundef %88, i64 noundef 0)
  %89 = load i64, ptr %10, align 8, !tbaa !11
  %90 = load ptr, ptr %6, align 8, !tbaa !19
  %91 = getelementptr inbounds nuw i64, ptr %90, i64 %89
  store ptr %91, ptr %6, align 8, !tbaa !19
  %92 = load i64, ptr %10, align 8, !tbaa !11
  %93 = load i64, ptr %7, align 8, !tbaa !11
  %94 = sub i64 %93, %92
  store i64 %94, ptr %7, align 8, !tbaa !11
  br label %12

95:                                               ; preds = %86
  call void @llvm.lifetime.end.p0(i64 8, ptr %10) #7
  call void @llvm.lifetime.end.p0(i64 8, ptr %9) #7
  ret void
}