; Function Attrs: nounwind uwtable
define dso_local void @ewah_add_dirty_words(ptr noundef captures(none) %0, ptr noundef readonly captures(none) %1, i64 noundef %2, i32 noundef %3) local_unnamed_addr #0 {
  %5 = getelementptr inbounds nuw i8, ptr %0, i64 32
  %6 = getelementptr inbounds nuw i8, ptr %0, i64 8
  %7 = getelementptr inbounds nuw i8, ptr %0, i64 16
  %.not = icmp eq i32 %3, 0
  %8 = getelementptr inbounds nuw i8, ptr %0, i64 24
  %.pre = load ptr, ptr %5, align 8, !tbaa !11
  %.pre36 = load ptr, ptr %0, align 8, !tbaa !14
  br label %9

9:                                                ; preds = %buffer_push_rlw.exit, %4
  %10 = phi ptr [ %.pre36, %4 ], [ %71, %buffer_push_rlw.exit ]
  %11 = phi ptr [ %.pre, %4 ], [ %75, %buffer_push_rlw.exit ]
  %.032 = phi i64 [ %2, %4 ], [ %54, %buffer_push_rlw.exit ]
  %.031 = phi ptr [ %1, %4 ], [ %76, %buffer_push_rlw.exit ]
  %.val = load i64, ptr %11, align 8, !tbaa !12
  %12 = lshr i64 %.val, 33
  %13 = xor i64 %12, 2147483647
  %14 = tail call noundef i64 @llvm.umin.i64(i64 %.032, i64 range(i64 -2147483648, 4294967296) %13)
  %15 = add nuw nsw i64 %14, %12
  %16 = or i64 %.val, -8589934592
  %17 = shl i64 %15, 33
  %18 = or disjoint i64 %17, 8589934591
  %19 = and i64 %18, %16
  store i64 %19, ptr %11, align 8, !tbaa !12
  %20 = load i64, ptr %6, align 8, !tbaa !13
  %21 = add i64 %14, %20
  %22 = load i64, ptr %7, align 8, !tbaa !15
  %23 = icmp ugt i64 %21, %22
  br i1 %23, label %24, label %buffer_grow.exit

24:                                               ; preds = %9
  %25 = mul i64 %22, 3
  %26 = add i64 %25, 48
  %27 = lshr i64 %26, 1
  %..i = tail call i64 @llvm.umax.i64(i64 %27, i64 %21)
  store i64 %..i, ptr %7, align 8, !tbaa !15
  %28 = icmp ugt i64 %..i, 2305843009213693951
  br i1 %28, label %29, label %st_mult.exit.i

29:                                               ; preds = %24
  tail call void (ptr, ...) @die(ptr noundef nonnull @.str, i64 noundef 8, i64 noundef %..i) #11
  unreachable

st_mult.exit.i:                                   ; preds = %24
  %30 = shl nuw i64 %..i, 3
  %31 = tail call ptr @xrealloc(ptr noundef %10, i64 noundef %30) #12
  store ptr %31, ptr %0, align 8, !tbaa !14
  br label %buffer_grow.exit

buffer_grow.exit:                                 ; preds = %9, %st_mult.exit.i
  %32 = phi ptr [ %31, %st_mult.exit.i ], [ %10, %9 ]
  %33 = ptrtoint ptr %11 to i64
  %34 = ptrtoint ptr %10 to i64
  %35 = sub i64 %33, %34
  %36 = lshr i64 %35, 3
  %37 = getelementptr inbounds nuw i64, ptr %32, i64 %36
  store ptr %37, ptr %5, align 8, !tbaa !11
  br i1 %.not, label %45, label %.preheader

.preheader:                                       ; preds = %buffer_grow.exit
  %.not35 = icmp eq i64 %14, 0
  br i1 %.not35, label %.loopexit, label %.lr.ph

.lr.ph:                                           ; preds = %.preheader, %.lr.ph
  %.034 = phi i64 [ %44, %.lr.ph ], [ 0, %.preheader ]
  %38 = getelementptr inbounds nuw i64, ptr %.031, i64 %.034
  %39 = load i64, ptr %38, align 8, !tbaa !12
  %40 = xor i64 %39, -1
  %41 = load i64, ptr %6, align 8, !tbaa !13
  %42 = add i64 %41, 1
  store i64 %42, ptr %6, align 8, !tbaa !13
  %43 = getelementptr inbounds nuw i64, ptr %32, i64 %41
  store i64 %40, ptr %43, align 8, !tbaa !12
  %44 = add nuw nsw i64 %.034, 1
  %exitcond.not = icmp eq i64 %44, %14
  br i1 %exitcond.not, label %.loopexit, label %.lr.ph, !llvm.loop !18

45:                                               ; preds = %buffer_grow.exit
  %46 = load i64, ptr %6, align 8, !tbaa !13
  %47 = getelementptr inbounds nuw i64, ptr %32, i64 %46
  %48 = shl nuw nsw i64 %14, 3
  tail call void @llvm.memcpy.p0.p0.i64(ptr align 8 %47, ptr align 8 %.031, i64 %48, i1 false)
  %49 = load i64, ptr %6, align 8, !tbaa !13
  %50 = add i64 %49, %14
  store i64 %50, ptr %6, align 8, !tbaa !13
  br label %.loopexit

.loopexit:                                        ; preds = %.lr.ph, %.preheader, %45
  %51 = shl nuw nsw i64 %14, 6
  %52 = load i64, ptr %8, align 8, !tbaa !4
  %53 = add i64 %52, %51
  store i64 %53, ptr %8, align 8, !tbaa !4
  %54 = sub i64 %.032, %14
  %55 = icmp eq i64 %54, 0
  br i1 %55, label %77, label %56

56:                                               ; preds = %.loopexit
  %57 = load i64, ptr %6, align 8, !tbaa !13
  %58 = add i64 %57, 1
  %59 = load ptr, ptr %0, align 8, !tbaa !14
  %60 = load i64, ptr %7, align 8, !tbaa !15
  %61 = icmp ugt i64 %58, %60
  br i1 %61, label %62, label %buffer_push_rlw.exit

62:                                               ; preds = %56
  %63 = mul i64 %60, 3
  %64 = add i64 %63, 48
  %65 = lshr i64 %64, 1
  %..i.i.i = tail call i64 @llvm.umax.i64(i64 %65, i64 %58)
  store i64 %..i.i.i, ptr %7, align 8, !tbaa !15
  %66 = icmp ugt i64 %..i.i.i, 2305843009213693951
  br i1 %66, label %67, label %st_mult.exit.i.i.i

67:                                               ; preds = %62
  tail call void (ptr, ...) @die(ptr noundef nonnull @.str, i64 noundef 8, i64 noundef %..i.i.i) #11
  unreachable

st_mult.exit.i.i.i:                               ; preds = %62
  %68 = shl nuw i64 %..i.i.i, 3
  %69 = tail call ptr @xrealloc(ptr noundef %59, i64 noundef %68) #12
  store ptr %69, ptr %0, align 8, !tbaa !14
  %.pre.i.i = load i64, ptr %6, align 8, !tbaa !13
  %.pre4.i.i = add i64 %.pre.i.i, 1
  br label %buffer_push_rlw.exit

buffer_push_rlw.exit:                             ; preds = %56, %st_mult.exit.i.i.i
  %.pre-phi.i.i = phi i64 [ %58, %56 ], [ %.pre4.i.i, %st_mult.exit.i.i.i ]
  %70 = phi i64 [ %57, %56 ], [ %.pre.i.i, %st_mult.exit.i.i.i ]
  %71 = phi ptr [ %59, %56 ], [ %69, %st_mult.exit.i.i.i ]
  store i64 %.pre-phi.i.i, ptr %6, align 8, !tbaa !13
  %72 = getelementptr inbounds nuw i64, ptr %71, i64 %70
  store i64 0, ptr %72, align 8, !tbaa !12
  %73 = load i64, ptr %6, align 8, !tbaa !13
  %74 = getelementptr inbounds nuw i64, ptr %71, i64 %73
  %75 = getelementptr inbounds i8, ptr %74, i64 -8
  store ptr %75, ptr %5, align 8, !tbaa !11
  %76 = getelementptr inbounds nuw i64, ptr %.031, i64 %14
  br label %9

77:                                               ; preds = %.loopexit
  ret void
}